; Function Attrs: nounwind uwtable
define ptr @l_Lean_Meta_MVarRenaming_apply(ptr noundef %0, ptr noundef %1) local_unnamed_addr #1 {
  %3 = tail call zeroext i8 @l_Lean_Expr_hasMVar(ptr noundef %1) #4
  %4 = icmp eq i8 %3, 0
  %5 = ptrtoint ptr %0 to i64
  %6 = and i64 %5, 1
  %.not25 = icmp eq i64 %6, 0
  br i1 %4, label %7, label %23

7:                                                ; preds = %2
  br i1 %.not25, label %8, label %lean_dec.exit14

8:                                                ; preds = %7
  %9 = load i32, ptr %0, align 4, !tbaa !4
  %10 = icmp sgt i32 %9, 1
  br i1 %10, label %11, label %13, !prof !9

11:                                               ; preds = %8
  %12 = add nsw i32 %9, -1
  store i32 %12, ptr %0, align 4, !tbaa !4
  br label %lean_dec.exit14

13:                                               ; preds = %8
  %.not.i = icmp eq i32 %9, 0
  br i1 %.not.i, label %lean_dec.exit14, label %14

14:                                               ; preds = %13
  tail call void @lean_dec_ref_cold(ptr noundef nonnull %0) #4
  br label %lean_dec.exit14

lean_dec.exit14:                                  ; preds = %14, %13, %11, %7
  %15 = ptrtoint ptr %1 to i64
  %16 = and i64 %15, 1
  %.not26 = icmp eq i64 %16, 0
  br i1 %.not26, label %17, label %lean_inc.exit15

17:                                               ; preds = %lean_dec.exit14
  %.val.i = load i32, ptr %1, align 4, !tbaa !4
  %18 = icmp sgt i32 %.val.i, 0
  br i1 %18, label %19, label %21, !prof !9

19:                                               ; preds = %17
  %20 = add nuw i32 %.val.i, 1
  store i32 %20, ptr %1, align 4, !tbaa !4
  br label %lean_inc.exit15

21:                                               ; preds = %17
  %.not.i18 = icmp eq i32 %.val.i, 0
  br i1 %.not.i18, label %lean_inc.exit15, label %22

22:                                               ; preds = %21
  tail call void @lean_inc_ref_cold(ptr noundef nonnull %1) #4
  br label %lean_inc.exit15

23:                                               ; preds = %2
  br i1 %.not25, label %27, label %24

24:                                               ; preds = %23
  %25 = lshr i64 %5, 1
  %26 = trunc i64 %25 to i32
  br label %lean_obj_tag.exit

27:                                               ; preds = %23
  %28 = getelementptr i8, ptr %0, i64 4
  %.val.i20 = load i32, ptr %28, align 4
  %29 = lshr i32 %.val.i20, 24
  br label %lean_obj_tag.exit

lean_obj_tag.exit:                                ; preds = %24, %27
  %.0.i = phi i32 [ %26, %24 ], [ %29, %27 ]
  %30 = icmp eq i32 %.0.i, 0
  br i1 %30, label %31, label %40

31:                                               ; preds = %lean_obj_tag.exit
  %32 = ptrtoint ptr %1 to i64
  %33 = and i64 %32, 1
  %.not24 = icmp eq i64 %33, 0
  br i1 %.not24, label %34, label %lean_inc.exit15

34:                                               ; preds = %31
  %.val.i21 = load i32, ptr %1, align 4, !tbaa !4
  %35 = icmp sgt i32 %.val.i21, 0
  br i1 %35, label %36, label %38, !prof !9

36:                                               ; preds = %34
  %37 = add nuw i32 %.val.i21, 1
  store i32 %37, ptr %1, align 4, !tbaa !4
  br label %lean_inc.exit15

38:                                               ; preds = %34
  %.not.i22 = icmp eq i32 %.val.i21, 0
  br i1 %.not.i22, label %lean_inc.exit15, label %39

39:                                               ; preds = %38
  tail call void @lean_inc_ref_cold(ptr noundef nonnull %1) #4
  br label %lean_inc.exit15

40:                                               ; preds = %lean_obj_tag.exit
  tail call void @lean_inc_heartbeat() #4
  %41 = tail call noalias ptr @mi_malloc_small(i64 noundef 32) #4
  %42 = icmp eq ptr %41, null
  br i1 %42, label %43, label %lean_alloc_closure.exit

43:                                               ; preds = %40
  tail call void @lean_internal_panic_out_of_memory() #5
  unreachable

lean_alloc_closure.exit:                          ; preds = %40
  %44 = getelementptr inbounds nuw i8, ptr %41, i64 4
  store i32 1, ptr %41, align 4, !tbaa !4
  store i32 -184549344, ptr %44, align 4
  %45 = getelementptr inbounds nuw i8, ptr %41, i64 8
  store ptr @l_Lean_Meta_MVarRenaming_apply___lambda__1___boxed, ptr %45, align 8, !tbaa !10
  %46 = getelementptr inbounds nuw i8, ptr %41, i64 16
  store i16 2, ptr %46, align 8, !tbaa !12
  %47 = getelementptr inbounds nuw i8, ptr %41, i64 18
  store i16 1, ptr %47, align 2, !tbaa !12
  %48 = getelementptr inbounds nuw i8, ptr %41, i64 24
  store ptr %0, ptr %48, align 8, !tbaa !10
  %49 = tail call ptr @lean_replace_expr(ptr noundef nonnull %41, ptr noundef %1) #4
  %50 = ptrtoint ptr %41 to i64
  %51 = and i64 %50, 1
  %.not = icmp eq i64 %51, 0
  br i1 %.not, label %52, label %lean_inc.exit15

52:                                               ; preds = %lean_alloc_closure.exit
  %53 = load i32, ptr %41, align 4, !tbaa !4
  %54 = icmp sgt i32 %53, 1
  br i1 %54, label %55, label %57, !prof !9

55:                                               ; preds = %52
  %56 = add nsw i32 %53, -1
  store i32 %56, ptr %41, align 4, !tbaa !4
  br label %lean_inc.exit15

57:                                               ; preds = %52
  %.not.i16 = icmp eq i32 %53, 0
  br i1 %.not.i16, label %lean_inc.exit15, label %58

58:                                               ; preds = %57
  tail call void @lean_dec_ref_cold(ptr noundef nonnull %41) #4
  br label %lean_inc.exit15

lean_inc.exit15:                                  ; preds = %lean_alloc_closure.exit, %55, %57, %58, %31, %36, %38, %39, %lean_dec.exit14, %19, %21, %22
  %.0 = phi ptr [ %1, %22 ], [ %1, %21 ], [ %1, %19 ], [ %1, %lean_dec.exit14 ], [ %1, %39 ], [ %1, %38 ], [ %1, %36 ], [ %1, %31 ], [ %49, %58 ], [ %49, %57 ], [ %49, %55 ], [ %49, %lean_alloc_closure.exit ]
  ret ptr %.0
}